; Function Attrs: mustprogress nounwind uwtable
define dso_local { ptr, i64 } @_ZN4node10StreamPipe16ReadableListener13OnStreamAllocEm(ptr noundef nonnull align 8 dereferenceable(24) %this, i64 noundef %suggested_size) unnamed_addr #3 align 2 {
entry:
  %0 = ptrtoint ptr %this to i64
  %sub.i.i = add i64 %0, -80
  %1 = inttoptr i64 %sub.i.i to ptr
  %wanted_data_ = getelementptr inbounds i8, ptr %1, i64 72
  %2 = load i64, ptr %wanted_data_, align 8
  %.sroa.speculated = tail call i64 @llvm.umin.i64(i64 %2, i64 %suggested_size)
  %cmp.not = icmp eq i64 %.sroa.speculated, 0
  br i1 %cmp.not, label %do.body6, label %do.end7

do.body6:                                         ; preds = %entry
  tail call void @_ZN4node6AssertERKNS_13AssertionInfoE(ptr noundef nonnull align 8 dereferenceable(24) @_ZZN4node10StreamPipe16ReadableListener13OnStreamAllocEmE4args) #12
  tail call void @abort() #13
  unreachable

do.end7:                                          ; preds = %entry
  %realm_.i = getelementptr inbounds i8, ptr %1, i64 16
  %3 = load ptr, ptr %realm_.i, align 8
  %env_.i.i = getelementptr inbounds i8, ptr %3, i64 176
  %4 = load ptr, ptr %env_.i.i, align 8
  %call9 = tail call { ptr, i64 } @_ZN4node11Environment23allocate_managed_bufferEm(ptr noundef nonnull align 8 dereferenceable(2872) %4, i64 noundef %.sroa.speculated) #12
  ret { ptr, i64 } %call9
}